; Function Attrs: mustprogress nounwind uwtable
define dso_local noundef ptr @_ZN4llvm10AsmPrinter18getMBBExceptionSymERKNS_17MachineBasicBlockE(ptr noundef nonnull align 8 dereferenceable(785) %0, ptr nocapture noundef nonnull readonly align 8 dereferenceable(288) %1) local_unnamed_addr #0 align 2 {
  %3 = alloca %"struct.std::pair.1222", align 8
  %4 = alloca %"struct.llvm::MBBSectionID", align 8
  %5 = alloca %"class.llvm::Twine", align 8
  %6 = getelementptr inbounds nuw i8, ptr %0, i64 248
  %7 = getelementptr inbounds nuw i8, ptr %1, i64 252
  %.sroa.0.0.copyload.i = load i64, ptr %7, align 4
  store i64 %.sroa.0.0.copyload.i, ptr %4, align 8
  call void @_ZN4llvm12DenseMapBaseINS_8DenseMapINS_12MBBSectionIDEPNS_8MCSymbolENS_12DenseMapInfoIS2_vEENS_6detail12DenseMapPairIS2_S4_EEEES2_S4_S6_S9_E11try_emplaceIJEEESt4pairINS_16DenseMapIteratorIS2_S4_S6_S9_Lb0EEEbEOS2_DpOT_(ptr dead_on_unwind nonnull writable sret(%"struct.std::pair.1222") align 8 %3, ptr noundef nonnull align 1 dereferenceable(1) %6, ptr noundef nonnull align 4 dereferenceable(8) %4)
  %8 = getelementptr inbounds nuw i8, ptr %3, i64 16
  %9 = load i8, ptr %8, align 8
  %10 = trunc i8 %9 to i1
  br i1 %10, label %11, label %._crit_edge

._crit_edge:                                      ; preds = %2
  %.pre = load ptr, ptr %3, align 8
  %.phi.trans.insert = getelementptr inbounds nuw i8, ptr %.pre, i64 8
  %.pre2 = load ptr, ptr %.phi.trans.insert, align 8
  br label %19

11:                                               ; preds = %2
  %12 = getelementptr inbounds nuw i8, ptr %5, i64 32
  %13 = getelementptr inbounds nuw i8, ptr %5, i64 33
  store i8 1, ptr %13, align 1
  store ptr @.str.75, ptr %5, align 8
  store i8 3, ptr %12, align 8
  %14 = getelementptr inbounds nuw i8, ptr %0, i64 72
  %15 = load ptr, ptr %14, align 8
  %16 = call noundef ptr @_ZN4llvm9MCContext16createTempSymbolERKNS_5TwineEb(ptr noundef nonnull align 8 dereferenceable(2432) %15, ptr noundef nonnull align 8 dereferenceable(34) %5, i1 noundef zeroext true) #33
  %17 = load ptr, ptr %3, align 8
  %18 = getelementptr inbounds nuw i8, ptr %17, i64 8
  store ptr %16, ptr %18, align 8
  br label %19

19:                                               ; preds = %._crit_edge, %11
  %20 = phi ptr [ %.pre2, %._crit_edge ], [ %16, %11 ]
  ret ptr %20
}